; Function Attrs: nounwind uwtable
define internal fastcc void @handle_binary_protocol_error(ptr noundef %0) unnamed_addr #0 {
  %2 = load i32, ptr getelementptr inbounds nuw (i8, ptr @settings, i64 32), align 8, !tbaa !57
  %3 = icmp sgt i32 %2, 1
  br i1 %3, label %4, label %write_bin_error.exit

4:                                                ; preds = %1
  %5 = load ptr, ptr @stderr, align 8, !tbaa !58
  %6 = getelementptr inbounds nuw i8, ptr %0, i64 8
  %7 = load i32, ptr %6, align 8, !tbaa !37
  %8 = tail call i32 (ptr, ptr, ...) @fprintf(ptr noundef %5, ptr noundef nonnull @.str.17, i32 noundef %7, ptr noundef nonnull @.str.9) #12
  br label %write_bin_error.exit

write_bin_error.exit:                             ; preds = %4, %1
  tail call fastcc void @add_bin_header(ptr noundef %0, i16 noundef zeroext 4, i8 noundef zeroext 0, i16 noundef zeroext 0, i32 noundef 17)
  %9 = getelementptr inbounds nuw i8, ptr %0, i64 208
  %10 = load ptr, ptr %9, align 8, !tbaa !60
  tail call void @resp_add_iov(ptr noundef %10, ptr noundef nonnull @.str.9, i32 noundef 17) #11
  tail call void @conn_set_state(ptr noundef %0, i32 noundef 9) #11
  %11 = load i32, ptr getelementptr inbounds nuw (i8, ptr @settings, i64 32), align 8, !tbaa !57
  %.not = icmp eq i32 %11, 0
  br i1 %.not, label %20, label %12

12:                                               ; preds = %write_bin_error.exit
  %13 = load ptr, ptr @stderr, align 8, !tbaa !58
  %14 = getelementptr inbounds nuw i8, ptr %0, i64 337
  %15 = load i8, ptr %14, align 1, !tbaa !28
  %16 = zext i8 %15 to i32
  %17 = getelementptr inbounds nuw i8, ptr %0, i64 8
  %18 = load i32, ptr %17, align 8, !tbaa !37
  %19 = tail call i32 (ptr, ptr, ...) @fprintf(ptr noundef %13, ptr noundef nonnull @.str.31, i32 noundef %16, i32 noundef %18) #12
  br label %20

20:                                               ; preds = %12, %write_bin_error.exit
  %21 = getelementptr inbounds nuw i8, ptr %0, i64 16
  store i8 1, ptr %21, align 8, !tbaa !75
  ret void
}